Certificate:
    Data:
        Version: 3 (0x2)
        Serial Number: 1 (0x1)
        Signature Algorithm: md5WithRSAEncryption
        Issuer: CN=PeerSec Sample CA, ST=Washington, C=US/emailAddress=peersec@peersec.com, O=PeerSec Networks LLC, OU=MatrixSSL
        Validity
            Not Before: Mar 11 20:02:34 2004 GMT
            Not After : Mar 11 20:02:34 2005 GMT
        Subject: CN=Sample MatrixSSL Cert, ST=Washington, C=US/emailAddress=matrixssl@peersec.com, O=PeerSec Networks LLC, OU=MatrixSSL
        Subject Public Key Info:
            Public Key Algorithm: rsaEncryption
            RSA Public Key: (1024 bit)
                Modulus (1024 bit):
                    00:dd:e5:ae:bf:27:35:11:55:ba:cf:45:cd:07:e3:
                    8e:67:d8:98:5c:1d:10:a2:53:b0:0a:5c:29:8b:ac:
                    eb:eb:d3:b9:10:44:5f:92:94:de:22:2c:82:bb:97:
                    49:2c:4d:4e:9b:15:a8:1b:27:9e:8d:38:79:23:80:
                    67:15:a1:33:7f:42:9d:e3:78:53:c0:b0:9f:01:50:
                    1d:28:88:26:ad:f7:2e:af:c3:21:85:59:79:37:2a:
                    ff:7d:00:97:99:57:e5:52:d6:0d:6d:db:db:be:d2:
                    d2:81:a8:a3:09:c4:13:9c:92:a1:e7:c4:97:8a:db:
                    b4:91:bc:8a:e5:34:40:fc:e5
                Exponent: 65537 (0x10001)
        X509v3 extensions:
            X509v3 Basic Constraints: 
            CA:FALSE
    Signature Algorithm: md5WithRSAEncryption
        39:22:28:1d:78:ce:95:65:7d:df:6a:1a:64:53:50:e3:ad:41:
        d9:a5:41:49:36:45:fc:6d:97:02:65:25:07:18:c9:05:ae:95:
        95:52:14:6b:98:84:dc:0c:40:e1:7e:7f:11:6e:8d:4c:34:06:
        06:89:0e:16:13:c7:40:15:76:a9:6f:d8:d1:c3:81:a7:35:67:
        f9:da:ba:21:94:16:3d:d0:6d:48:14:d3:35:ae:14:f2:84:4d:
        51:5f:8e:5b:f6:20:27:09:85:2c:58:80:d2:9b:68:ae:8b:93:
        1e:96:5f:6f:74:54:50:5c:9f:7f:3b:c9:62:e4:f7:be:6f:cd:
        d1:31
-----BEGIN CERTIFICATE-----
MIICtTCCAh6gAwIBAgIBATANBgkqhkiG9w0BAQQFADCBlTEaMBgGA1UEAxMRUGVl
clNlYyBTYW1wbGUgQ0ExEzARBgNVBAgTCldhc2hpbmd0b24xCzAJBgNVBAYTAlVT
MSIwIAYJKoZIhvcNAQkBFhNwZWVyc2VjQHBlZXJzZWMuY29tMR0wGwYDVQQKExRQ
ZWVyU2VjIE5ldHdvcmtzIExMQzESMBAGA1UECxMJTWF0cml4U1NMMB4XDTA0MDMx
MTIwMDIzNFoXDTA1MDMxMTIwMDIzNFowgZsxHjAcBgNVBAMTFVNhbXBsZSBNYXRy
aXhTU0wgQ2VydDETMBEGA1UECBMKV2FzaGluZ3RvbjELMAkGA1UEBhMCVVMxJDAi
BgkqhkiG9w0BCQEWFW1hdHJpeHNzbEBwZWVyc2VjLmNvbTEdMBsGA1UEChMUUGVl
clNlYyBOZXR3b3JrcyBMTEMxEjAQBgNVBAsTCU1hdHJpeFNTTDCBnzANBgkqhkiG
9w0BAQEFAAOBjQAwgYkCgYEA3eWuvyc1EVW6z0XNB+OOZ9iYXB0QolOwClwpi6zr
69O5EERfkpTeIiyCu5dJLE1OmxWoGyeejTh5I4BnFaEzf0Kd43hTwLCfAVAdKIgm
rfcur8MhhVl5Nyr/fQCXmVflUtYNbdvbvtLSgaijCcQTnJKh58SXitu0kbyK5TRA
/OUCAwEAAaMNMAswCQYDVR0TBAIwADANBgkqhkiG9w0BAQQFAAOBgQA5IigdeM6V
ZX3fahpkU1DjrUHZpUFJNkX8bZcCZSUHGMkFrpWVUhRrmITcDEDhfn8Rbo1MNAYG
iQ4WE8dAFXapb9jRw4GnNWf52rohlBY90G1IFNM1rhTyhE1RX45b9iAnCYUsWIDS
m2iui5Mell9vdFRQXJ9/O8li5Pe+b83RMQ==
-----END CERTIFICATE-----
